; Function Attrs: nounwind uwtable
define dso_local void @readonlyCommand(ptr noundef %0) local_unnamed_addr #0 {
  %2 = load i32, ptr getelementptr inbounds nuw (i8, ptr @server, i64 7888), align 8, !tbaa !90
  %3 = icmp eq i32 %2, 0
  br i1 %3, label %4, label %5

4:                                                ; preds = %1
  tail call void @addReplyError(ptr noundef %0, ptr noundef nonnull @.str.90) #16
  br label %10

5:                                                ; preds = %1
  %6 = getelementptr inbounds nuw i8, ptr %0, i64 8
  %7 = load i64, ptr %6, align 8, !tbaa !123
  %8 = or i64 %7, 131072
  store i64 %8, ptr %6, align 8, !tbaa !123
  %9 = load ptr, ptr @shared, align 8, !tbaa !72
  tail call void @addReply(ptr noundef %0, ptr noundef %9) #16
  br label %10

10:                                               ; preds = %5, %4
  ret void
}